; Function Attrs: nounwind uwtable
define internal i32 @pmix_pif_base_open(i32 noundef %0) #1 {
  %.b2 = load i1, ptr @frameopen, align 1
  br i1 %.b2, label %13, label %2

2:                                                ; preds = %1
  store i1 true, ptr @frameopen, align 1
  %3 = load i32, ptr @pmix_class_init_epoch, align 4, !tbaa !24
  %4 = load i32, ptr getelementptr inbounds nuw (i8, ptr @pmix_list_t_class, i64 32), align 8, !tbaa !25
  %.not = icmp eq i32 %3, %4
  br i1 %.not, label %6, label %5

5:                                                ; preds = %2
  tail call void @pmix_class_initialize(ptr noundef nonnull @pmix_list_t_class) #9
  br label %6

6:                                                ; preds = %5, %2
  store ptr @pmix_list_t_class, ptr getelementptr inbounds nuw (i8, ptr @pmix_if_list, i64 40), align 8, !tbaa !28
  store i32 1, ptr getelementptr inbounds nuw (i8, ptr @pmix_if_list, i64 48), align 8, !tbaa !29
  tail call void @llvm.memset.p0.i64(ptr noundef nonnull align 8 dereferenceable(64) getelementptr inbounds nuw (i8, ptr @pmix_if_list, i64 56), i8 0, i64 64, i1 false)
  %7 = load ptr, ptr getelementptr inbounds nuw (i8, ptr @pmix_list_t_class, i64 40), align 8, !tbaa !30
  %8 = load ptr, ptr %7, align 8, !tbaa !31
  %.not1.i = icmp eq ptr %8, null
  br i1 %.not1.i, label %pmix_obj_run_constructors.exit, label %.lr.ph.i

.lr.ph.i:                                         ; preds = %6, %.lr.ph.i
  %9 = phi ptr [ %11, %.lr.ph.i ], [ %8, %6 ]
  %.02.i = phi ptr [ %10, %.lr.ph.i ], [ %7, %6 ]
  tail call void %9(ptr noundef nonnull @pmix_if_list) #9
  %10 = getelementptr inbounds nuw i8, ptr %.02.i, i64 8
  %11 = load ptr, ptr %10, align 8, !tbaa !31
  %.not.i = icmp eq ptr %11, null
  br i1 %.not.i, label %pmix_obj_run_constructors.exit, label %.lr.ph.i, !llvm.loop !32

pmix_obj_run_constructors.exit:                   ; preds = %.lr.ph.i, %6
  %12 = tail call i32 @pmix_mca_base_framework_components_open(ptr noundef nonnull @pmix_pif_base_framework, i32 noundef %0) #9
  br label %13

13:                                               ; preds = %1, %pmix_obj_run_constructors.exit
  %.0 = phi i32 [ %12, %pmix_obj_run_constructors.exit ], [ 0, %1 ]
  ret i32 %.0
}